; Function Attrs: mustprogress nounwind uwtable
define hidden { i32, ptr } @_ZN4llvh3sys2fs6statusERKNS_5TwineERNS1_11file_statusEb(ptr noundef nonnull align 8 dereferenceable(18) %Path, ptr nocapture noundef nonnull writeonly align 8 dereferenceable(64) %Result, i1 noundef zeroext %Follow) local_unnamed_addr #0 {
entry:
  %PathStorage = alloca %"class.llvh::SmallString.11", align 8
  %Status = alloca %struct.stat, align 8
  %add.ptr.i.i.i.i.i.i = getelementptr inbounds i8, ptr %PathStorage, i64 16
  store ptr %add.ptr.i.i.i.i.i.i, ptr %PathStorage, align 8
  %Size.i.i.i.i.i.i = getelementptr inbounds i8, ptr %PathStorage, i64 8
  store i32 0, ptr %Size.i.i.i.i.i.i, align 8
  %Capacity2.i.i.i.i.i.i = getelementptr inbounds i8, ptr %PathStorage, i64 12
  store i32 128, ptr %Capacity2.i.i.i.i.i.i, align 4
  %call = call { ptr, i64 } @_ZNK4llvh5Twine25toNullTerminatedStringRefERNS_15SmallVectorImplIcEE(ptr noundef nonnull align 8 dereferenceable(18) %Path, ptr noundef nonnull align 8 dereferenceable(16) %PathStorage) #29
  %0 = extractvalue { ptr, i64 } %call, 0
  %stat.lstat = select i1 %Follow, ptr @stat, ptr @lstat
  %call2 = call noundef i32 %stat.lstat(ptr noundef %0, ptr noundef nonnull %Status) #29, !callees !46
  %call3 = call fastcc { i32, ptr } @_ZN4llvh3sys2fsL10fillStatusEiRK4statRNS1_11file_statusE(i32 noundef %call2, ptr noundef nonnull align 8 dereferenceable(144) %Status, ptr noundef nonnull align 8 dereferenceable(64) %Result)
  %1 = load ptr, ptr %PathStorage, align 8
  %cmp.i.i.i.i = icmp eq ptr %1, %add.ptr.i.i.i.i.i.i
  br i1 %cmp.i.i.i.i, label %_ZN4llvh11SmallStringILj128EED2Ev.exit, label %if.then.i.i.i

if.then.i.i.i:                                    ; preds = %entry
  call void @free(ptr noundef %1) #29
  br label %_ZN4llvh11SmallStringILj128EED2Ev.exit

_ZN4llvh11SmallStringILj128EED2Ev.exit:           ; preds = %entry, %if.then.i.i.i
  ret { i32, ptr } %call3
}